target datalayout = "e-m:e-p270:32:32-p271:32:32-p272:64:64-i64:64-i128:128-f80:128-n8:16:32:64-S128"
target triple = "x86_64-pc-linux-gnu"

; Function Attrs: mustprogress nounwind uwtable
define hidden noundef zeroext i1 @_ZN12smt_renaming12is_numericalEPKc(ptr noundef nonnull align 8 dereferenceable(48) %0, ptr noundef %1) #6 align 2 {
  %3 = alloca i1, align 1
  %4 = alloca ptr, align 8
  %5 = alloca ptr, align 8
  store ptr %0, ptr %4, align 8, !tbaa !3
  store ptr %1, ptr %5, align 8, !tbaa !10
  br label %6

6:                                                ; preds = %17, %2
  %7 = load ptr, ptr %5, align 8, !tbaa !10
  %8 = load i8, ptr %7, align 1, !tbaa !12
  %9 = icmp ne i8 %8, 0
  br i1 %9, label %10, label %20

10:                                               ; preds = %6
  %11 = load ptr, ptr %5, align 8, !tbaa !10
  %12 = load i8, ptr %11, align 1, !tbaa !12
  %13 = sext i8 %12 to i32
  %14 = call i32 @isdigit(i32 noundef %13) #21
  %15 = icmp ne i32 %14, 0
  br i1 %15, label %17, label %16

16:                                               ; preds = %10
  store i1 false, ptr %3, align 1
  br label %21

17:                                               ; preds = %10
  %18 = load ptr, ptr %5, align 8, !tbaa !10
  %19 = getelementptr inbounds nuw i8, ptr %18, i32 1
  store ptr %19, ptr %5, align 8, !tbaa !10
  br label %6, !llvm.loop !29

20:                                               ; preds = %6
  store i1 true, ptr %3, align 1
  br label %21

21:                                               ; preds = %20, %16
  %22 = load i1, ptr %3, align 1
  ret i1 %22
}