; Function Attrs: mustprogress nofree norecurse nosync nounwind willreturn memory(argmem: read) uwtable
define hidden noundef zeroext i1 @_ZN12smt_renaming12is_numericalEPKc(ptr noundef nonnull readnone align 8 captures(none) dereferenceable(48) %0, ptr noundef readonly captures(none) %1) local_unnamed_addr #6 align 2 {
  br label %3

3:                                                ; preds = %3, %2
  %.0 = phi ptr [ %1, %2 ], [ %7, %3 ]
  %4 = load i8, ptr %.0, align 1, !tbaa !3
  %5 = sext i8 %4 to i32
  %6 = add nsw i32 %5, -58
  %isdigit = icmp ult i32 %6, -10
  %7 = getelementptr inbounds nuw i8, ptr %.0, i64 1
  br i1 %isdigit, label %8, label %3, !llvm.loop !11

8:                                                ; preds = %3
  %.not = icmp eq i8 %4, 0
  ret i1 %.not
}